target datalayout = "e-m:e-p270:32:32-p271:32:32-p272:64:64-i64:64-i128:128-f80:128-n8:16:32:64-S128"
target triple = "x86_64-pc-linux-gnu"

@hf_rsl_ie_id = internal global i32 0, align 4
@hf_rsl_ie_length = internal global i32 0, align 4
@hf_rsl_paging_grp = internal global i32 0, align 4
@hf_rsl_paging_package_ch_no = internal global i32 0, align 4
@hf_rsl_paging_package_ch_needed = internal global i32 0, align 4
@hf_rsl_paging_emlpp_prio = internal global i32 0, align 4
@hf_rsl_paging_type = internal global i32 0, align 4
@hf_rsl_paging_group_cs = internal global i32 0, align 4
@hf_rsl_paging_group_empty_package = internal global i32 0, align 4
@hf_rsl_paging_group_ps_spare = internal global i32 0, align 4
@ett_ie_ms_id = internal global i32 0, align 4
@ett_ie_paging_package = internal global i32 0, align 4
@ett_ie_paging_package_ch_a_emlpp = internal global i32 0, align 4
@ett_ie_paging_group_paras = internal global i32 0, align 4
@.str.775 = private unnamed_addr constant [15 x i8] c"MS Identity IE\00", align 1
@.str.827 = private unnamed_addr constant [23 x i8] c"Paging Package Info %u\00", align 1
@.str.828 = private unnamed_addr constant [18 x i8] c"Channel and eMLPP\00", align 1
@.str.829 = private unnamed_addr constant [19 x i8] c"Paging Group Paras\00", align 1

; Function Attrs: null_pointer_is_valid sspstrong uwtable
define internal i32 @dissect_rsl_paging_group_paras(ptr noundef %0, ptr noundef %1, ptr noundef %2, i32 noundef %3) #0 {
  %5 = alloca ptr, align 8
  %6 = alloca ptr, align 8
  %7 = alloca ptr, align 8
  %8 = alloca i32, align 4
  %9 = alloca ptr, align 8
  %10 = alloca i8, align 1
  %11 = alloca i8, align 1
  %12 = alloca i8, align 1
  store ptr %0, ptr %5, align 8
  store ptr %1, ptr %6, align 8
  store ptr %2, ptr %7, align 8
  store i32 %3, ptr %8, align 4
  call void @llvm.lifetime.start.p0(i64 8, ptr %9) #6
  call void @llvm.lifetime.start.p0(i64 1, ptr %10) #6
  call void @llvm.lifetime.start.p0(i64 1, ptr %11) #6
  call void @llvm.lifetime.start.p0(i64 1, ptr %12) #6
  %13 = load ptr, ptr %5, align 8
  %14 = load i32, ptr %8, align 4
  %15 = call zeroext i8 @tvb_get_uint8(ptr noundef %13, i32 noundef %14)
  %16 = zext i8 %15 to i32
  %17 = and i32 %16, 128
  %18 = ashr i32 %17, 7
  %19 = trunc i32 %18 to i8
  store i8 %19, ptr %10, align 1
  %20 = load i8, ptr %10, align 1
  %21 = zext i8 %20 to i32
  %22 = icmp eq i32 %21, 0
  br i1 %22, label %23, label %24

23:                                               ; preds = %4
  store i8 2, ptr %12, align 1
  br label %25

24:                                               ; preds = %4
  store i8 5, ptr %12, align 1
  br label %25

25:                                               ; preds = %24, %23
  %26 = load ptr, ptr %7, align 8
  %27 = load ptr, ptr %5, align 8
  %28 = load i32, ptr %8, align 4
  %29 = load i8, ptr %12, align 1
  %30 = zext i8 %29 to i32
  %31 = load i32, ptr @ett_ie_paging_group_paras, align 4
  %32 = call ptr @proto_tree_add_subtree(ptr noundef %26, ptr noundef %27, i32 noundef %28, i32 noundef %30, i32 noundef %31, ptr noundef null, ptr noundef @.str.829)
  store ptr %32, ptr %9, align 8
  %33 = load ptr, ptr %9, align 8
  %34 = load i32, ptr @hf_rsl_paging_type, align 4
  %35 = load ptr, ptr %5, align 8
  %36 = load i32, ptr %8, align 4
  %37 = call ptr @proto_tree_add_item(ptr noundef %33, i32 noundef %34, ptr noundef %35, i32 noundef %36, i32 noundef 1, i32 noundef 0)
  %38 = load i8, ptr %10, align 1
  %39 = zext i8 %38 to i32
  %40 = icmp eq i32 %39, 0
  br i1 %40, label %41, label %56

41:                                               ; preds = %25
  %42 = load ptr, ptr %9, align 8
  %43 = load i32, ptr @hf_rsl_paging_group_cs, align 4
  %44 = load ptr, ptr %5, align 8
  %45 = load i32, ptr %8, align 4
  %46 = call ptr @proto_tree_add_item(ptr noundef %42, i32 noundef %43, ptr noundef %44, i32 noundef %45, i32 noundef 1, i32 noundef 0)
  %47 = load i32, ptr %8, align 4
  %48 = add i32 %47, 1
  store i32 %48, ptr %8, align 4
  %49 = load ptr, ptr %9, align 8
  %50 = load i32, ptr @hf_rsl_paging_group_empty_package, align 4
  %51 = load ptr, ptr %5, align 8
  %52 = load i32, ptr %8, align 4
  %53 = call ptr @proto_tree_add_item(ptr noundef %49, i32 noundef %50, ptr noundef %51, i32 noundef %52, i32 noundef 1, i32 noundef 0)
  %54 = load i32, ptr %8, align 4
  %55 = add i32 %54, 1
  store i32 %55, ptr %8, align 4
  br label %80

56:                                               ; preds = %25
  %57 = load ptr, ptr %9, align 8
  %58 = load i32, ptr @hf_rsl_paging_group_ps_spare, align 4
  %59 = load ptr, ptr %5, align 8
  %60 = load i32, ptr %8, align 4
  %61 = call ptr @proto_tree_add_item(ptr noundef %57, i32 noundef %58, ptr noundef %59, i32 noundef %60, i32 noundef 1, i32 noundef 0)
  %62 = load i32, ptr %8, align 4
  %63 = add i32 %62, 1
  store i32 %63, ptr %8, align 4
  store i8 1, ptr %11, align 1
  br label %64

64:                                               ; preds = %76, %56
  %65 = load i8, ptr %11, align 1
  %66 = zext i8 %65 to i32
  %67 = icmp sle i32 %66, 4
  br i1 %67, label %68, label %79

68:                                               ; preds = %64
  %69 = load ptr, ptr %9, align 8
  %70 = load i32, ptr @hf_rsl_paging_grp, align 4
  %71 = load ptr, ptr %5, align 8
  %72 = load i32, ptr %8, align 4
  %73 = call ptr @proto_tree_add_item(ptr noundef %69, i32 noundef %70, ptr noundef %71, i32 noundef %72, i32 noundef 1, i32 noundef 0)
  %74 = load i32, ptr %8, align 4
  %75 = add i32 %74, 1
  store i32 %75, ptr %8, align 4
  br label %76

76:                                               ; preds = %68
  %77 = load i8, ptr %11, align 1
  %78 = add i8 %77, 1
  store i8 %78, ptr %11, align 1
  br label %64, !llvm.loop !12

79:                                               ; preds = %64
  br label %80

80:                                               ; preds = %79, %41
  %81 = load i32, ptr %8, align 4
  call void @llvm.lifetime.end.p0(i64 1, ptr %12) #6
  call void @llvm.lifetime.end.p0(i64 1, ptr %11) #6
  call void @llvm.lifetime.end.p0(i64 1, ptr %10) #6
  call void @llvm.lifetime.end.p0(i64 8, ptr %9) #6
  ret i32 %81
}

; Function Attrs: null_pointer_is_valid sspstrong uwtable
define internal i32 @dissect_rsl_ie_ms_id(ptr noundef %0, ptr noundef %1, ptr noundef %2, i32 noundef %3, i1 noundef zeroext %4) #0 {
  %6 = alloca i32, align 4
  %7 = alloca ptr, align 8
  %8 = alloca ptr, align 8
  %9 = alloca ptr, align 8
  %10 = alloca i32, align 4
  %11 = alloca i8, align 1
  %12 = alloca ptr, align 8
  %13 = alloca ptr, align 8
  %14 = alloca i32, align 4
  %15 = alloca i8, align 1
  %16 = alloca i32, align 4
  store ptr %0, ptr %7, align 8
  store ptr %1, ptr %8, align 8
  store ptr %2, ptr %9, align 8
  store i32 %3, ptr %10, align 4
  %17 = zext i1 %4 to i8
  store i8 %17, ptr %11, align 1
  call void @llvm.lifetime.start.p0(i64 8, ptr %12) #6
  call void @llvm.lifetime.start.p0(i64 8, ptr %13) #6
  call void @llvm.lifetime.start.p0(i64 4, ptr %14) #6
  call void @llvm.lifetime.start.p0(i64 1, ptr %15) #6
  %18 = load i8, ptr %11, align 1, !range !6, !noundef !7
  %19 = trunc i8 %18 to i1
  %20 = zext i1 %19 to i32
  %21 = icmp eq i32 %20, 0
  br i1 %21, label %22, label %32

22:                                               ; preds = %5
  %23 = load ptr, ptr %7, align 8
  %24 = load i32, ptr %10, align 4
  %25 = call zeroext i8 @tvb_get_uint8(ptr noundef %23, i32 noundef %24)
  store i8 %25, ptr %15, align 1
  %26 = load i8, ptr %15, align 1
  %27 = zext i8 %26 to i32
  %28 = icmp ne i32 %27, 12
  br i1 %28, label %29, label %31

29:                                               ; preds = %22
  %30 = load i32, ptr %10, align 4
  store i32 %30, ptr %6, align 4
  store i32 1, ptr %16, align 4
  br label %69

31:                                               ; preds = %22
  br label %32

32:                                               ; preds = %31, %5
  %33 = load ptr, ptr %9, align 8
  %34 = load ptr, ptr %7, align 8
  %35 = load i32, ptr %10, align 4
  %36 = load i32, ptr @ett_ie_ms_id, align 4
  %37 = call ptr @proto_tree_add_subtree(ptr noundef %33, ptr noundef %34, i32 noundef %35, i32 noundef 0, i32 noundef %36, ptr noundef %12, ptr noundef @.str.775)
  store ptr %37, ptr %13, align 8
  %38 = load ptr, ptr %13, align 8
  %39 = load i32, ptr @hf_rsl_ie_id, align 4
  %40 = load ptr, ptr %7, align 8
  %41 = load i32, ptr %10, align 4
  %42 = call ptr @proto_tree_add_item(ptr noundef %38, i32 noundef %39, ptr noundef %40, i32 noundef %41, i32 noundef 1, i32 noundef 0)
  %43 = load i32, ptr %10, align 4
  %44 = add i32 %43, 1
  store i32 %44, ptr %10, align 4
  %45 = load ptr, ptr %7, align 8
  %46 = load i32, ptr %10, align 4
  %47 = call zeroext i8 @tvb_get_uint8(ptr noundef %45, i32 noundef %46)
  %48 = zext i8 %47 to i32
  store i32 %48, ptr %14, align 4
  %49 = load ptr, ptr %12, align 8
  %50 = load i32, ptr %14, align 4
  %51 = add i32 %50, 2
  call void @proto_item_set_len(ptr noundef %49, i32 noundef %51)
  %52 = load ptr, ptr %13, align 8
  %53 = load i32, ptr @hf_rsl_ie_length, align 4
  %54 = load ptr, ptr %7, align 8
  %55 = load i32, ptr %10, align 4
  %56 = call ptr @proto_tree_add_item(ptr noundef %52, i32 noundef %53, ptr noundef %54, i32 noundef %55, i32 noundef 1, i32 noundef 0)
  %57 = load i32, ptr %10, align 4
  %58 = add i32 %57, 1
  store i32 %58, ptr %10, align 4
  %59 = load ptr, ptr %7, align 8
  %60 = load ptr, ptr %13, align 8
  %61 = load ptr, ptr %8, align 8
  %62 = load i32, ptr %10, align 4
  %63 = load i32, ptr %14, align 4
  %64 = call zeroext i16 @de_mid(ptr noundef %59, ptr noundef %60, ptr noundef %61, i32 noundef %62, i32 noundef %63, ptr noundef null, i32 noundef 0)
  %65 = load i32, ptr %10, align 4
  %66 = load i32, ptr %14, align 4
  %67 = add i32 %65, %66
  store i32 %67, ptr %10, align 4
  %68 = load i32, ptr %10, align 4
  store i32 %68, ptr %6, align 4
  store i32 1, ptr %16, align 4
  br label %69

69:                                               ; preds = %32, %29
  call void @llvm.lifetime.end.p0(i64 1, ptr %15) #6
  call void @llvm.lifetime.end.p0(i64 4, ptr %14) #6
  call void @llvm.lifetime.end.p0(i64 8, ptr %13) #6
  call void @llvm.lifetime.end.p0(i64 8, ptr %12) #6
  %70 = load i32, ptr %6, align 4
  ret i32 %70
}

; Function Attrs: null_pointer_is_valid sspstrong uwtable
define internal i32 @dissect_rsl_paging_package_channel_and_emlpp(ptr noundef %0, ptr noundef %1, ptr noundef %2, i32 noundef %3) #0 {
  %5 = alloca ptr, align 8
  %6 = alloca ptr, align 8
  %7 = alloca ptr, align 8
  %8 = alloca i32, align 4
  %9 = alloca ptr, align 8
  store ptr %0, ptr %5, align 8
  store ptr %1, ptr %6, align 8
  store ptr %2, ptr %7, align 8
  store i32 %3, ptr %8, align 4
  call void @llvm.lifetime.start.p0(i64 8, ptr %9) #6
  %10 = load ptr, ptr %7, align 8
  %11 = load ptr, ptr %5, align 8
  %12 = load i32, ptr %8, align 4
  %13 = load i32, ptr @ett_ie_paging_package_ch_a_emlpp, align 4
  %14 = call ptr @proto_tree_add_subtree(ptr noundef %10, ptr noundef %11, i32 noundef %12, i32 noundef 1, i32 noundef %13, ptr noundef null, ptr noundef @.str.828)
  store ptr %14, ptr %9, align 8
  %15 = load ptr, ptr %9, align 8
  %16 = load i32, ptr @hf_rsl_paging_package_ch_no, align 4
  %17 = load ptr, ptr %5, align 8
  %18 = load i32, ptr %8, align 4
  %19 = call ptr @proto_tree_add_item(ptr noundef %15, i32 noundef %16, ptr noundef %17, i32 noundef %18, i32 noundef 1, i32 noundef 0)
  %20 = load ptr, ptr %9, align 8
  %21 = load i32, ptr @hf_rsl_paging_package_ch_needed, align 4
  %22 = load ptr, ptr %5, align 8
  %23 = load i32, ptr %8, align 4
  %24 = call ptr @proto_tree_add_item(ptr noundef %20, i32 noundef %21, ptr noundef %22, i32 noundef %23, i32 noundef 1, i32 noundef 0)
  %25 = load ptr, ptr %9, align 8
  %26 = load i32, ptr @hf_rsl_paging_emlpp_prio, align 4
  %27 = load ptr, ptr %5, align 8
  %28 = load i32, ptr %8, align 4
  %29 = call ptr @proto_tree_add_item(ptr noundef %25, i32 noundef %26, ptr noundef %27, i32 noundef %28, i32 noundef 1, i32 noundef 0)
  %30 = load i32, ptr %8, align 4
  %31 = add i32 %30, 1
  store i32 %31, ptr %8, align 4
  %32 = load i32, ptr %8, align 4
  call void @llvm.lifetime.end.p0(i64 8, ptr %9) #6
  ret i32 %32
}

; Function Attrs: null_pointer_is_valid sspstrong uwtable
define internal i32 @dissect_rsl_paging_package(ptr noundef %0, ptr noundef %1, ptr noundef %2, i32 noundef %3, i8 noundef zeroext %4) #0 {
  %6 = alloca ptr, align 8
  %7 = alloca ptr, align 8
  %8 = alloca ptr, align 8
  %9 = alloca i32, align 4
  %10 = alloca i8, align 1
  %11 = alloca ptr, align 8
  %12 = alloca i8, align 1
  %13 = alloca i8, align 1
  %14 = alloca i8, align 1
  store ptr %0, ptr %6, align 8
  store ptr %1, ptr %7, align 8
  store ptr %2, ptr %8, align 8
  store i32 %3, ptr %9, align 4
  store i8 %4, ptr %10, align 1
  call void @llvm.lifetime.start.p0(i64 8, ptr %11) #6
  call void @llvm.lifetime.start.p0(i64 1, ptr %12) #6
  call void @llvm.lifetime.start.p0(i64 1, ptr %13) #6
  call void @llvm.lifetime.start.p0(i64 1, ptr %14) #6
  store i8 1, ptr %12, align 1
  br label %15

15:                                               ; preds = %77, %5
  %16 = load i8, ptr %12, align 1
  %17 = zext i8 %16 to i32
  %18 = load i8, ptr %10, align 1
  %19 = zext i8 %18 to i32
  %20 = icmp sle i32 %17, %19
  br i1 %20, label %21, label %80

21:                                               ; preds = %15
  %22 = load ptr, ptr %6, align 8
  %23 = load i32, ptr %9, align 4
  %24 = add i32 %23, 2
  %25 = call zeroext i8 @tvb_get_uint8(ptr noundef %22, i32 noundef %24)
  %26 = zext i8 %25 to i32
  %27 = add i32 %26, 3
  %28 = trunc i32 %27 to i8
  store i8 %28, ptr %13, align 1
  %29 = load ptr, ptr %6, align 8
  %30 = load i32, ptr %9, align 4
  %31 = load i8, ptr %13, align 1
  %32 = zext i8 %31 to i32
  %33 = add i32 %30, %32
  %34 = call zeroext i8 @tvb_get_uint8(ptr noundef %29, i32 noundef %33)
  %35 = zext i8 %34 to i32
  %36 = and i32 %35, 128
  %37 = ashr i32 %36, 7
  %38 = trunc i32 %37 to i8
  store i8 %38, ptr %14, align 1
  %39 = load i8, ptr %14, align 1
  %40 = zext i8 %39 to i32
  %41 = icmp eq i32 %40, 0
  br i1 %41, label %42, label %47

42:                                               ; preds = %21
  %43 = load i8, ptr %13, align 1
  %44 = zext i8 %43 to i32
  %45 = add i32 %44, 2
  %46 = trunc i32 %45 to i8
  store i8 %46, ptr %13, align 1
  br label %52

47:                                               ; preds = %21
  %48 = load i8, ptr %13, align 1
  %49 = zext i8 %48 to i32
  %50 = add i32 %49, 5
  %51 = trunc i32 %50 to i8
  store i8 %51, ptr %13, align 1
  br label %52

52:                                               ; preds = %47, %42
  %53 = load ptr, ptr %8, align 8
  %54 = load ptr, ptr %6, align 8
  %55 = load i32, ptr %9, align 4
  %56 = load i8, ptr %13, align 1
  %57 = zext i8 %56 to i32
  %58 = load i32, ptr @ett_ie_paging_package, align 4
  %59 = load i8, ptr %12, align 1
  %60 = zext i8 %59 to i32
  %61 = call ptr (ptr, ptr, i32, i32, i32, ptr, ptr, ...) @proto_tree_add_subtree_format(ptr noundef %53, ptr noundef %54, i32 noundef %55, i32 noundef %57, i32 noundef %58, ptr noundef null, ptr noundef @.str.827, i32 noundef %60)
  store ptr %61, ptr %11, align 8
  %62 = load ptr, ptr %6, align 8
  %63 = load ptr, ptr %7, align 8
  %64 = load ptr, ptr %11, align 8
  %65 = load i32, ptr %9, align 4
  %66 = call i32 @dissect_rsl_paging_package_channel_and_emlpp(ptr noundef %62, ptr noundef %63, ptr noundef %64, i32 noundef %65)
  store i32 %66, ptr %9, align 4
  %67 = load ptr, ptr %6, align 8
  %68 = load ptr, ptr %7, align 8
  %69 = load ptr, ptr %11, align 8
  %70 = load i32, ptr %9, align 4
  %71 = call i32 @dissect_rsl_ie_ms_id(ptr noundef %67, ptr noundef %68, ptr noundef %69, i32 noundef %70, i1 noundef zeroext true)
  store i32 %71, ptr %9, align 4
  %72 = load ptr, ptr %6, align 8
  %73 = load ptr, ptr %7, align 8
  %74 = load ptr, ptr %11, align 8
  %75 = load i32, ptr %9, align 4
  %76 = call i32 @dissect_rsl_paging_group_paras(ptr noundef %72, ptr noundef %73, ptr noundef %74, i32 noundef %75)
  store i32 %76, ptr %9, align 4
  br label %77

77:                                               ; preds = %52
  %78 = load i8, ptr %12, align 1
  %79 = add i8 %78, 1
  store i8 %79, ptr %12, align 1
  br label %15, !llvm.loop !11

80:                                               ; preds = %15
  %81 = load i32, ptr %9, align 4
  call void @llvm.lifetime.end.p0(i64 1, ptr %14) #6
  call void @llvm.lifetime.end.p0(i64 1, ptr %13) #6
  call void @llvm.lifetime.end.p0(i64 1, ptr %12) #6
  call void @llvm.lifetime.end.p0(i64 8, ptr %11) #6
  ret i32 %81
}