; Function Attrs: null_pointer_is_valid sspstrong uwtable
define internal fastcc noundef i32 @dissect_rsl_paging_package(ptr noundef %0, ptr noundef %1, ptr noundef %2, i32 noundef %3, i8 noundef zeroext range(i8 0, 16) %4) unnamed_addr #0 {
  %6 = alloca ptr, align 8
  %.not31 = icmp eq i8 %4, 0
  br i1 %.not31, label %._crit_edge, label %.lr.ph.preheader

.lr.ph.preheader:                                 ; preds = %5
  %7 = add nuw nsw i8 %4, 1
  %wide.trip.count = zext nneg i8 %7 to i32
  br label %.lr.ph

.lr.ph:                                           ; preds = %.lr.ph.preheader, %dissect_rsl_paging_group_paras.exit
  %indvars.iv = phi i32 [ 1, %.lr.ph.preheader ], [ %indvars.iv.next, %dissect_rsl_paging_group_paras.exit ]
  %.033 = phi i32 [ %3, %.lr.ph.preheader ], [ %.030.i, %dissect_rsl_paging_group_paras.exit ]
  %8 = add i32 %.033, 2
  %9 = call zeroext i8 @tvb_get_uint8(ptr noundef %0, i32 noundef %8)
  %10 = add i8 %9, 3
  %11 = zext i8 %10 to i32
  %12 = add i32 %.033, %11
  %13 = call zeroext i8 @tvb_get_uint8(ptr noundef %0, i32 noundef %12)
  %14 = icmp slt i8 %13, 0
  %.028.v = select i1 %14, i8 8, i8 5
  %.028 = add i8 %.028.v, %9
  %15 = zext i8 %.028 to i32
  %16 = load i32, ptr @ett_ie_paging_package, align 4
  %17 = call ptr (ptr, ptr, i32, i32, i32, ptr, ptr, ...) @proto_tree_add_subtree_format(ptr noundef %2, ptr noundef %0, i32 noundef %.033, i32 noundef %15, i32 noundef %16, ptr noundef null, ptr noundef nonnull @.str.827, i32 noundef %indvars.iv)
  %18 = load i32, ptr @ett_ie_paging_package_ch_a_emlpp, align 4
  %19 = call ptr @proto_tree_add_subtree(ptr noundef %17, ptr noundef %0, i32 noundef %.033, i32 noundef 1, i32 noundef %18, ptr noundef null, ptr noundef nonnull @.str.828)
  %20 = load i32, ptr @hf_rsl_paging_package_ch_no, align 4
  %21 = call ptr @proto_tree_add_item(ptr noundef %19, i32 noundef %20, ptr noundef %0, i32 noundef %.033, i32 noundef 1, i32 noundef 0)
  %22 = load i32, ptr @hf_rsl_paging_package_ch_needed, align 4
  %23 = call ptr @proto_tree_add_item(ptr noundef %19, i32 noundef %22, ptr noundef %0, i32 noundef %.033, i32 noundef 1, i32 noundef 0)
  %24 = load i32, ptr @hf_rsl_paging_emlpp_prio, align 4
  %25 = call ptr @proto_tree_add_item(ptr noundef %19, i32 noundef %24, ptr noundef %0, i32 noundef %.033, i32 noundef 1, i32 noundef 0)
  %26 = add i32 %.033, 1
  call void @llvm.lifetime.start.p0(i64 8, ptr nonnull %6) #6
  %27 = load i32, ptr @ett_ie_ms_id, align 4
  %28 = call ptr @proto_tree_add_subtree(ptr noundef %17, ptr noundef %0, i32 noundef %26, i32 noundef 0, i32 noundef %27, ptr noundef nonnull %6, ptr noundef nonnull @.str.775)
  %29 = load i32, ptr @hf_rsl_ie_id, align 4
  %30 = call ptr @proto_tree_add_item(ptr noundef %28, i32 noundef %29, ptr noundef %0, i32 noundef %26, i32 noundef 1, i32 noundef 0)
  %31 = call zeroext i8 @tvb_get_uint8(ptr noundef %0, i32 noundef %8)
  %32 = zext i8 %31 to i32
  %33 = load ptr, ptr %6, align 8
  %34 = add nuw nsw i32 %32, 2
  call void @proto_item_set_len(ptr noundef %33, i32 noundef %34)
  %35 = load i32, ptr @hf_rsl_ie_length, align 4
  %36 = call ptr @proto_tree_add_item(ptr noundef %28, i32 noundef %35, ptr noundef %0, i32 noundef %8, i32 noundef 1, i32 noundef 0)
  %37 = add i32 %.033, 3
  %38 = call zeroext i16 @de_mid(ptr noundef %0, ptr noundef %28, ptr noundef %1, i32 noundef %37, i32 noundef %32, ptr noundef null, i32 noundef 0)
  %39 = add i32 %37, %32
  call void @llvm.lifetime.end.p0(i64 8, ptr nonnull %6) #6
  %40 = call zeroext i8 @tvb_get_uint8(ptr noundef %0, i32 noundef %39)
  %41 = icmp sgt i8 %40, -1
  %..i = select i1 %41, i32 2, i32 5
  %42 = load i32, ptr @ett_ie_paging_group_paras, align 4
  %43 = call ptr @proto_tree_add_subtree(ptr noundef %17, ptr noundef %0, i32 noundef %39, i32 noundef %..i, i32 noundef %42, ptr noundef null, ptr noundef nonnull @.str.829)
  %44 = load i32, ptr @hf_rsl_paging_type, align 4
  %45 = call ptr @proto_tree_add_item(ptr noundef %43, i32 noundef %44, ptr noundef %0, i32 noundef %39, i32 noundef 1, i32 noundef 0)
  %46 = add i32 %39, 1
  br i1 %41, label %47, label %53

47:                                               ; preds = %.lr.ph
  %48 = load i32, ptr @hf_rsl_paging_group_cs, align 4
  %49 = call ptr @proto_tree_add_item(ptr noundef %43, i32 noundef %48, ptr noundef %0, i32 noundef %39, i32 noundef 1, i32 noundef 0)
  %50 = load i32, ptr @hf_rsl_paging_group_empty_package, align 4
  %51 = call ptr @proto_tree_add_item(ptr noundef %43, i32 noundef %50, ptr noundef %0, i32 noundef %46, i32 noundef 1, i32 noundef 0)
  %52 = add i32 %39, 2
  br label %dissect_rsl_paging_group_paras.exit

53:                                               ; preds = %.lr.ph
  %54 = load i32, ptr @hf_rsl_paging_group_ps_spare, align 4
  %55 = call ptr @proto_tree_add_item(ptr noundef %43, i32 noundef %54, ptr noundef %0, i32 noundef %39, i32 noundef 1, i32 noundef 0)
  br label %56

56:                                               ; preds = %56, %53
  %.13.i = phi i32 [ %46, %53 ], [ %.1.i, %56 ]
  %.0292.i = phi i8 [ 1, %53 ], [ %59, %56 ]
  %57 = load i32, ptr @hf_rsl_paging_grp, align 4
  %58 = call ptr @proto_tree_add_item(ptr noundef %43, i32 noundef %57, ptr noundef %0, i32 noundef %.13.i, i32 noundef 1, i32 noundef 0)
  %59 = add nuw nsw i8 %.0292.i, 1
  %.1.i = add i32 %.13.i, 1
  %exitcond.not.i = icmp eq i8 %59, 5
  br i1 %exitcond.not.i, label %dissect_rsl_paging_group_paras.exit, label %56, !llvm.loop !11

dissect_rsl_paging_group_paras.exit:              ; preds = %56, %47
  %.030.i = phi i32 [ %52, %47 ], [ %.1.i, %56 ]
  %indvars.iv.next = add nuw nsw i32 %indvars.iv, 1
  %exitcond = icmp eq i32 %indvars.iv.next, %wide.trip.count
  br i1 %exitcond, label %._crit_edge, label %.lr.ph, !llvm.loop !12

._crit_edge:                                      ; preds = %dissect_rsl_paging_group_paras.exit, %5
  %.0.lcssa = phi i32 [ %3, %5 ], [ %.030.i, %dissect_rsl_paging_group_paras.exit ]
  ret i32 %.0.lcssa
}